; Function Attrs: mustprogress nounwind uwtable
define hidden noundef zeroext i1 @_ZNK8ciMethod16is_boxing_methodEv(ptr nocapture noundef nonnull readonly align 8 dereferenceable(160) %0) local_unnamed_addr #0 align 2 {
  %2 = getelementptr inbounds i8, ptr %0, i64 84
  %3 = load i32, ptr %2, align 4
  %.not = icmp eq i32 %3, 0
  br i1 %.not, label %10, label %4

4:                                                ; preds = %1
  %5 = getelementptr inbounds i8, ptr %0, i64 40
  %6 = load ptr, ptr %5, align 8
  %7 = tail call noundef zeroext i1 @_ZNK15ciInstanceKlass12is_box_klassEv(ptr noundef nonnull align 8 dereferenceable(144) %6) #14
  br i1 %7, label %8, label %10

8:                                                ; preds = %4
  %9 = load i32, ptr %2, align 4
  %.off = add i32 %9, -412
  %switch = icmp ult i32 %.off, 8
  br label %10

10:                                               ; preds = %1, %4, %8
  %.0 = phi i1 [ %switch, %8 ], [ false, %4 ], [ false, %1 ]
  ret i1 %.0
}